target datalayout = "e-m:e-p270:32:32-p271:32:32-p272:64:64-i64:64-i128:128-f80:128-n8:16:32:64-S128"
target triple = "x86_64-pc-linux-gnu"

; Function Attrs: nounwind uwtable
define hidden void @mbedtls_aesni_gcm_mult(ptr noundef %0, ptr noundef %1, ptr noundef %2) #0 {
  %4 = alloca ptr, align 8
  %5 = alloca ptr, align 8
  %6 = alloca ptr, align 8
  %7 = alloca [16 x i8], align 16
  %8 = alloca [16 x i8], align 16
  %9 = alloca [16 x i8], align 16
  %10 = alloca i64, align 8
  store ptr %0, ptr %4, align 8, !tbaa !11
  store ptr %1, ptr %5, align 8, !tbaa !11
  store ptr %2, ptr %6, align 8, !tbaa !11
  call void @llvm.lifetime.start.p0(i64 16, ptr %7) #4
  call void @llvm.lifetime.start.p0(i64 16, ptr %8) #4
  call void @llvm.lifetime.start.p0(i64 16, ptr %9) #4
  call void @llvm.lifetime.start.p0(i64 8, ptr %10) #4
  store i64 0, ptr %10, align 8, !tbaa !18
  br label %11

11:                                               ; preds = %29, %3
  %12 = load i64, ptr %10, align 8, !tbaa !18
  %13 = icmp ult i64 %12, 16
  br i1 %13, label %14, label %32

14:                                               ; preds = %11
  %15 = load ptr, ptr %5, align 8, !tbaa !11
  %16 = load i64, ptr %10, align 8, !tbaa !18
  %17 = sub i64 15, %16
  %18 = getelementptr inbounds nuw i8, ptr %15, i64 %17
  %19 = load i8, ptr %18, align 1, !tbaa !19
  %20 = load i64, ptr %10, align 8, !tbaa !18
  %21 = getelementptr inbounds nuw [16 x i8], ptr %7, i64 0, i64 %20
  store i8 %19, ptr %21, align 1, !tbaa !19
  %22 = load ptr, ptr %6, align 8, !tbaa !11
  %23 = load i64, ptr %10, align 8, !tbaa !18
  %24 = sub i64 15, %23
  %25 = getelementptr inbounds nuw i8, ptr %22, i64 %24
  %26 = load i8, ptr %25, align 1, !tbaa !19
  %27 = load i64, ptr %10, align 8, !tbaa !18
  %28 = getelementptr inbounds nuw [16 x i8], ptr %8, i64 0, i64 %27
  store i8 %26, ptr %28, align 1, !tbaa !19
  br label %29

29:                                               ; preds = %14
  %30 = load i64, ptr %10, align 8, !tbaa !18
  %31 = add i64 %30, 1
  store i64 %31, ptr %10, align 8, !tbaa !18
  br label %11, !llvm.loop !20

32:                                               ; preds = %11
  %33 = getelementptr inbounds [16 x i8], ptr %7, i64 0, i64 0
  %34 = getelementptr inbounds [16 x i8], ptr %8, i64 0, i64 0
  %35 = getelementptr inbounds [16 x i8], ptr %9, i64 0, i64 0
  call void asm sideeffect "movdqu ($0), %xmm0               \0A\09movdqu ($1), %xmm1               \0A\09movdqa %xmm1, %xmm2             \0A\09movdqa %xmm1, %xmm3             \0A\09movdqa %xmm1, %xmm4             \0A\09.byte 0x66,0x0F,0x3A,0x44,0xC8,0x00\0A\09.byte 0x66,0x0F,0x3A,0x44,0xD0,0x11\0A\09.byte 0x66,0x0F,0x3A,0x44,0xD8,0x10\0A\09.byte 0x66,0x0F,0x3A,0x44,0xE0,0x01\0A\09pxor %xmm3, %xmm4               \0A\09movdqa %xmm4, %xmm3             \0A\09psrldq $$8, %xmm4                 \0A\09pslldq $$8, %xmm3                 \0A\09pxor %xmm4, %xmm2               \0A\09pxor %xmm3, %xmm1               \0A\09movdqa %xmm1, %xmm3             \0A\09movdqa %xmm2, %xmm4             \0A\09psllq $$1, %xmm1                  \0A\09psllq $$1, %xmm2                  \0A\09psrlq $$63, %xmm3                 \0A\09psrlq $$63, %xmm4                 \0A\09movdqa %xmm3, %xmm5             \0A\09pslldq $$8, %xmm3                 \0A\09pslldq $$8, %xmm4                 \0A\09psrldq $$8, %xmm5                 \0A\09por %xmm3, %xmm1                \0A\09por %xmm4, %xmm2                \0A\09por %xmm5, %xmm2                \0A\09movdqa %xmm1, %xmm3             \0A\09movdqa %xmm1, %xmm4             \0A\09movdqa %xmm1, %xmm5             \0A\09psllq $$63, %xmm3                 \0A\09psllq $$62, %xmm4                 \0A\09psllq $$57, %xmm5                 \0A\09pxor %xmm4, %xmm3               \0A\09pxor %xmm5, %xmm3               \0A\09pslldq $$8, %xmm3                 \0A\09pxor %xmm3, %xmm1               \0A\09movdqa %xmm1,%xmm0              \0A\09movdqa %xmm1,%xmm4              \0A\09movdqa %xmm1,%xmm5              \0A\09psrlq $$1, %xmm0                  \0A\09psrlq $$2, %xmm4                  \0A\09psrlq $$7, %xmm5                  \0A\09pxor %xmm4, %xmm0               \0A\09pxor %xmm5, %xmm0               \0A\09movdqa %xmm1,%xmm3              \0A\09movdqa %xmm1,%xmm4              \0A\09movdqa %xmm1,%xmm5              \0A\09psllq $$63, %xmm3                 \0A\09psllq $$62, %xmm4                 \0A\09psllq $$57, %xmm5                 \0A\09pxor %xmm4, %xmm3               \0A\09pxor %xmm5, %xmm3               \0A\09psrldq $$8, %xmm3                 \0A\09pxor %xmm3, %xmm0               \0A\09pxor %xmm1, %xmm0               \0A\09pxor %xmm2, %xmm0               \0A\09movdqu %xmm0, ($2)               \0A\09", "r,r,r,~{memory},~{cc},~{xmm0},~{xmm1},~{xmm2},~{xmm3},~{xmm4},~{xmm5},~{dirflag},~{fpsr},~{flags}"(ptr %33, ptr %34, ptr %35) #4, !srcloc !22
  store i64 0, ptr %10, align 8, !tbaa !18
  br label %36

36:                                               ; preds = %47, %32
  %37 = load i64, ptr %10, align 8, !tbaa !18
  %38 = icmp ult i64 %37, 16
  br i1 %38, label %39, label %50

39:                                               ; preds = %36
  %40 = load i64, ptr %10, align 8, !tbaa !18
  %41 = sub i64 15, %40
  %42 = getelementptr inbounds nuw [16 x i8], ptr %9, i64 0, i64 %41
  %43 = load i8, ptr %42, align 1, !tbaa !19
  %44 = load ptr, ptr %4, align 8, !tbaa !11
  %45 = load i64, ptr %10, align 8, !tbaa !18
  %46 = getelementptr inbounds nuw i8, ptr %44, i64 %45
  store i8 %43, ptr %46, align 1, !tbaa !19
  br label %47

47:                                               ; preds = %39
  %48 = load i64, ptr %10, align 8, !tbaa !18
  %49 = add i64 %48, 1
  store i64 %49, ptr %10, align 8, !tbaa !18
  br label %36, !llvm.loop !23

50:                                               ; preds = %36
  call void @llvm.lifetime.end.p0(i64 8, ptr %10) #4
  call void @llvm.lifetime.end.p0(i64 16, ptr %9) #4
  call void @llvm.lifetime.end.p0(i64 16, ptr %8) #4
  call void @llvm.lifetime.end.p0(i64 16, ptr %7) #4
  ret void
}