; Function Attrs: nounwind uwtable
define hidden void @mbedtls_aesni_gcm_mult(ptr noundef writeonly captures(none) %0, ptr noundef readonly captures(none) %1, ptr noundef readonly captures(none) %2) local_unnamed_addr #1 {
  %4 = alloca [16 x i8], align 16
  %5 = alloca [16 x i8], align 16
  %6 = alloca [16 x i8], align 16
  call void @llvm.lifetime.start.p0(i64 16, ptr nonnull %4) #5
  call void @llvm.lifetime.start.p0(i64 16, ptr nonnull %5) #5
  call void @llvm.lifetime.start.p0(i64 16, ptr nonnull %6) #5
  br label %7

7:                                                ; preds = %3, %7
  %.012 = phi i64 [ 0, %3 ], [ %15, %7 ]
  %8 = sub nuw nsw i64 15, %.012
  %9 = getelementptr inbounds nuw i8, ptr %1, i64 %8
  %10 = load i8, ptr %9, align 1, !tbaa !13
  %11 = getelementptr inbounds nuw [16 x i8], ptr %4, i64 0, i64 %.012
  store i8 %10, ptr %11, align 1, !tbaa !13
  %12 = getelementptr inbounds nuw i8, ptr %2, i64 %8
  %13 = load i8, ptr %12, align 1, !tbaa !13
  %14 = getelementptr inbounds nuw [16 x i8], ptr %5, i64 0, i64 %.012
  store i8 %13, ptr %14, align 1, !tbaa !13
  %15 = add nuw nsw i64 %.012, 1
  %exitcond.not = icmp eq i64 %15, 16
  br i1 %exitcond.not, label %16, label %7, !llvm.loop !14

16:                                               ; preds = %7
  call void asm sideeffect "movdqu ($0), %xmm0               \0A\09movdqu ($1), %xmm1               \0A\09movdqa %xmm1, %xmm2             \0A\09movdqa %xmm1, %xmm3             \0A\09movdqa %xmm1, %xmm4             \0A\09.byte 0x66,0x0F,0x3A,0x44,0xC8,0x00\0A\09.byte 0x66,0x0F,0x3A,0x44,0xD0,0x11\0A\09.byte 0x66,0x0F,0x3A,0x44,0xD8,0x10\0A\09.byte 0x66,0x0F,0x3A,0x44,0xE0,0x01\0A\09pxor %xmm3, %xmm4               \0A\09movdqa %xmm4, %xmm3             \0A\09psrldq $$8, %xmm4                 \0A\09pslldq $$8, %xmm3                 \0A\09pxor %xmm4, %xmm2               \0A\09pxor %xmm3, %xmm1               \0A\09movdqa %xmm1, %xmm3             \0A\09movdqa %xmm2, %xmm4             \0A\09psllq $$1, %xmm1                  \0A\09psllq $$1, %xmm2                  \0A\09psrlq $$63, %xmm3                 \0A\09psrlq $$63, %xmm4                 \0A\09movdqa %xmm3, %xmm5             \0A\09pslldq $$8, %xmm3                 \0A\09pslldq $$8, %xmm4                 \0A\09psrldq $$8, %xmm5                 \0A\09por %xmm3, %xmm1                \0A\09por %xmm4, %xmm2                \0A\09por %xmm5, %xmm2                \0A\09movdqa %xmm1, %xmm3             \0A\09movdqa %xmm1, %xmm4             \0A\09movdqa %xmm1, %xmm5             \0A\09psllq $$63, %xmm3                 \0A\09psllq $$62, %xmm4                 \0A\09psllq $$57, %xmm5                 \0A\09pxor %xmm4, %xmm3               \0A\09pxor %xmm5, %xmm3               \0A\09pslldq $$8, %xmm3                 \0A\09pxor %xmm3, %xmm1               \0A\09movdqa %xmm1,%xmm0              \0A\09movdqa %xmm1,%xmm4              \0A\09movdqa %xmm1,%xmm5              \0A\09psrlq $$1, %xmm0                  \0A\09psrlq $$2, %xmm4                  \0A\09psrlq $$7, %xmm5                  \0A\09pxor %xmm4, %xmm0               \0A\09pxor %xmm5, %xmm0               \0A\09movdqa %xmm1,%xmm3              \0A\09movdqa %xmm1,%xmm4              \0A\09movdqa %xmm1,%xmm5              \0A\09psllq $$63, %xmm3                 \0A\09psllq $$62, %xmm4                 \0A\09psllq $$57, %xmm5                 \0A\09pxor %xmm4, %xmm3               \0A\09pxor %xmm5, %xmm3               \0A\09psrldq $$8, %xmm3                 \0A\09pxor %xmm3, %xmm0               \0A\09pxor %xmm1, %xmm0               \0A\09pxor %xmm2, %xmm0               \0A\09movdqu %xmm0, ($2)               \0A\09", "r,r,r,~{memory},~{cc},~{xmm0},~{xmm1},~{xmm2},~{xmm3},~{xmm4},~{xmm5},~{dirflag},~{fpsr},~{flags}"(ptr nonnull %4, ptr nonnull %5, ptr nonnull %6) #5, !srcloc !16
  br label %17

17:                                               ; preds = %16, %17
  %.113 = phi i64 [ 0, %16 ], [ %22, %17 ]
  %18 = sub nuw nsw i64 15, %.113
  %19 = getelementptr inbounds nuw [16 x i8], ptr %6, i64 0, i64 %18
  %20 = load i8, ptr %19, align 1, !tbaa !13
  %21 = getelementptr inbounds nuw i8, ptr %0, i64 %.113
  store i8 %20, ptr %21, align 1, !tbaa !13
  %22 = add nuw nsw i64 %.113, 1
  %exitcond14.not = icmp eq i64 %22, 16
  br i1 %exitcond14.not, label %23, label %17, !llvm.loop !17

23:                                               ; preds = %17
  call void @llvm.lifetime.end.p0(i64 16, ptr nonnull %6) #5
  call void @llvm.lifetime.end.p0(i64 16, ptr nonnull %5) #5
  call void @llvm.lifetime.end.p0(i64 16, ptr nonnull %4) #5
  ret void
}